target datalayout = "e-m:e-p270:32:32-p271:32:32-p272:64:64-i64:64-i128:128-f80:128-n8:16:32:64-S128"
target triple = "x86_64-unknown-linux-gnu"

%"struct.std::_Rb_tree_key_compare" = type { %"struct.std::less" }
%"struct.std::less" = type { i8 }
%"struct.std::_Rb_tree_header" = type { %"struct.std::_Rb_tree_node_base", i64 }
%"struct.std::_Rb_tree_node_base" = type { i32, ptr, ptr, ptr }
%"class.std::__cxx11::basic_string" = type { %"struct.std::__cxx11::basic_string<char>::_Alloc_hider", i64, %union.anon }
%"struct.std::__cxx11::basic_string<char>::_Alloc_hider" = type { ptr }
%union.anon = type { i64, [8 x i8] }
%"class.std::__shared_count" = type { ptr }
%"class.grpc_core::ChannelArgs" = type { %"class.grpc_core::AVL" }
%"class.grpc_core::AVL" = type { %"class.grpc_core::RefCountedPtr" }
%"class.grpc_core::RefCountedPtr" = type { ptr }
%"class.grpc_core::Orphanable" = type { ptr }
%"class.grpc_core::RefCount" = type { %"struct.std::atomic.166" }
%"struct.std::atomic.166" = type { %"struct.std::__atomic_base.167" }
%"struct.std::__atomic_base.167" = type { i64 }
%"class.grpc_core::URI" = type { %"class.std::__cxx11::basic_string", %"class.std::__cxx11::basic_string", %"class.std::__cxx11::basic_string", %"class.std::map.200", %"class.std::vector.205", %"class.std::__cxx11::basic_string" }
%"class.std::map.200" = type { %"class.std::_Rb_tree.201" }
%"class.std::_Rb_tree.201" = type { %"struct.std::_Rb_tree<std::basic_string_view<char>, std::pair<const std::basic_string_view<char>, std::basic_string_view<char>>, std::_Select1st<std::pair<const std::basic_string_view<char>, std::basic_string_view<char>>>, std::less<std::basic_string_view<char>>>::_Rb_tree_impl" }
%"struct.std::_Rb_tree<std::basic_string_view<char>, std::pair<const std::basic_string_view<char>, std::basic_string_view<char>>, std::_Select1st<std::pair<const std::basic_string_view<char>, std::basic_string_view<char>>>, std::less<std::basic_string_view<char>>>::_Rb_tree_impl" = type { %"struct.std::_Rb_tree_key_compare", %"struct.std::_Rb_tree_header" }
%"class.std::vector.205" = type { %"struct.std::_Vector_base.206" }
%"struct.std::_Vector_base.206" = type { %"struct.std::_Vector_base<grpc_core::URI::QueryParam, std::allocator<grpc_core::URI::QueryParam>>::_Vector_impl" }
%"struct.std::_Vector_base<grpc_core::URI::QueryParam, std::allocator<grpc_core::URI::QueryParam>>::_Vector_impl" = type { %"struct.std::_Vector_base<grpc_core::URI::QueryParam, std::allocator<grpc_core::URI::QueryParam>>::_Vector_impl_data" }
%"struct.std::_Vector_base<grpc_core::URI::QueryParam, std::allocator<grpc_core::URI::QueryParam>>::_Vector_impl_data" = type { ptr, ptr, ptr }
%"class.std::shared_ptr.210" = type { %"class.std::__shared_ptr.211" }
%"class.std::__shared_ptr.211" = type { ptr, %"class.std::__shared_count" }
%"class.std::unique_ptr.213" = type { %"struct.std::__uniq_ptr_data.214" }
%"struct.std::__uniq_ptr_data.214" = type { %"class.std::__uniq_ptr_impl.215" }
%"class.std::__uniq_ptr_impl.215" = type { %"class.std::tuple.216" }
%"class.std::tuple.216" = type { %"struct.std::_Tuple_impl.217" }
%"struct.std::_Tuple_impl.217" = type { %"struct.std::_Head_base.220" }
%"struct.std::_Head_base.220" = type { ptr }
%"class.grpc_core::(anonymous namespace)::XdsResolver" = type { %"class.grpc_core::Resolver", %"class.std::shared_ptr.210", %"class.std::unique_ptr.213", %"class.grpc_core::ChannelArgs", ptr, %"class.grpc_core::URI", %"class.grpc_core::RefCountedPtr.227", %"class.std::__cxx11::basic_string", %"class.std::__cxx11::basic_string", i64, ptr, %"class.std::shared_ptr.228", %"class.std::__cxx11::basic_string", ptr, %"class.std::shared_ptr.231", ptr, %"class.std::map.234" }
%"class.grpc_core::Resolver" = type { %"class.grpc_core::InternallyRefCounted" }
%"class.grpc_core::InternallyRefCounted" = type { %"class.grpc_core::Orphanable", %"class.grpc_core::RefCount" }
%"class.grpc_core::RefCountedPtr.227" = type { ptr }
%"class.std::shared_ptr.228" = type { %"class.std::__shared_ptr.229" }
%"class.std::__shared_ptr.229" = type { ptr, %"class.std::__shared_count" }
%"class.std::shared_ptr.231" = type { %"class.std::__shared_ptr.232" }
%"class.std::__shared_ptr.232" = type { ptr, %"class.std::__shared_count" }
%"class.std::map.234" = type { %"class.std::_Rb_tree.235" }
%"class.std::_Rb_tree.235" = type { %"struct.std::_Rb_tree<std::basic_string_view<char>, std::pair<const std::basic_string_view<char>, grpc_core::WeakRefCountedPtr<grpc_core::(anonymous namespace)::XdsResolver::ClusterRef>>, std::_Select1st<std::pair<const std::basic_string_view<char>, grpc_core::WeakRefCountedPtr<grpc_core::(anonymous namespace)::XdsResolver::ClusterRef>>>, std::less<std::basic_string_view<char>>>::_Rb_tree_impl" }
%"struct.std::_Rb_tree<std::basic_string_view<char>, std::pair<const std::basic_string_view<char>, grpc_core::WeakRefCountedPtr<grpc_core::(anonymous namespace)::XdsResolver::ClusterRef>>, std::_Select1st<std::pair<const std::basic_string_view<char>, grpc_core::WeakRefCountedPtr<grpc_core::(anonymous namespace)::XdsResolver::ClusterRef>>>, std::less<std::basic_string_view<char>>>::_Rb_tree_impl" = type { %"struct.std::_Rb_tree_key_compare", %"struct.std::_Rb_tree_header" }

; Function Attrs: mustprogress nounwind uwtable
define linkonce_odr noundef ptr @_ZNK9grpc_core13RefCountedPtrINS_13GrpcXdsClientEEptEv(ptr noundef nonnull align 8 dereferenceable(8) %this) #4 comdat align 2 {
entry:
  %this.addr = alloca ptr, align 8
  store ptr %this, ptr %this.addr, align 8
  %this1 = load ptr, ptr %this.addr, align 8
  %value_ = getelementptr inbounds %"class.grpc_core::RefCountedPtr.227", ptr %this1, i32 0, i32 0
  %0 = load ptr, ptr %value_, align 8
  ret ptr %0
}

; Function Attrs: mustprogress nounwind uwtable
define linkonce_odr noundef zeroext i1 @_ZNK9grpc_core13RefCountedPtrINS_13GrpcXdsClientEEneEDn(ptr noundef nonnull align 8 dereferenceable(8) %this, ptr %0) #4 comdat align 2 {
entry:
  %this.addr = alloca ptr, align 8
  %.addr = alloca ptr, align 8
  store ptr %this, ptr %this.addr, align 8
  store ptr %0, ptr %.addr, align 8
  %this1 = load ptr, ptr %this.addr, align 8
  %value_ = getelementptr inbounds %"class.grpc_core::RefCountedPtr.227", ptr %this1, i32 0, i32 0
  %1 = load ptr, ptr %value_, align 8
  %cmp = icmp ne ptr %1, null
  ret i1 %cmp
}

; Function Attrs: mustprogress uwtable
define internal void @_ZN9grpc_core12_GLOBAL__N_111XdsResolver18ResetBackoffLockedEv(ptr noundef nonnull align 8 dereferenceable(472) %this) unnamed_addr #5 align 2 {
entry:
  %this.addr = alloca ptr, align 8
  store ptr %this, ptr %this.addr, align 8
  %this1 = load ptr, ptr %this.addr, align 8
  %xds_client_ = getelementptr inbounds %"class.grpc_core::(anonymous namespace)::XdsResolver", ptr %this1, i32 0, i32 6
  %call = call noundef zeroext i1 @_ZNK9grpc_core13RefCountedPtrINS_13GrpcXdsClientEEneEDn(ptr noundef nonnull align 8 dereferenceable(8) %xds_client_, ptr null)
  br i1 %call, label %if.then, label %if.end

if.then:                                          ; preds = %entry
  %xds_client_2 = getelementptr inbounds %"class.grpc_core::(anonymous namespace)::XdsResolver", ptr %this1, i32 0, i32 6
  %call3 = call noundef ptr @_ZNK9grpc_core13RefCountedPtrINS_13GrpcXdsClientEEptEv(ptr noundef nonnull align 8 dereferenceable(8) %xds_client_2)
  call void @_ZN9grpc_core9XdsClient12ResetBackoffEv(ptr noundef nonnull align 8 dereferenceable(433) %call3)
  br label %if.end

if.end:                                           ; preds = %if.then, %entry
  ret void
}