; Function Attrs: mustprogress uwtable
define internal void @_ZN9grpc_core12_GLOBAL__N_111XdsResolver18ResetBackoffLockedEv(ptr nocapture noundef nonnull readonly align 8 dereferenceable(472) %this) unnamed_addr #3 align 2 {
entry:
  %xds_client_ = getelementptr inbounds i8, ptr %this, i64 256
  %0 = load ptr, ptr %xds_client_, align 8
  %cmp.i.not = icmp eq ptr %0, null
  br i1 %cmp.i.not, label %if.end, label %if.then

if.then:                                          ; preds = %entry
  tail call void @_ZN9grpc_core9XdsClient12ResetBackoffEv(ptr noundef nonnull align 8 dereferenceable(433) %0)
  br label %if.end

if.end:                                           ; preds = %if.then, %entry
  ret void
}